target datalayout = "e-m:e-p270:32:32-p271:32:32-p272:64:64-i64:64-i128:128-f80:128-n8:16:32:64-S128"
target triple = "x86_64-pc-linux-gnu"

%struct.json_dumper = type { ptr, ptr, i32, i32, i32, i32, [1100 x i8] }

; Function Attrs: null_pointer_is_valid sspstrong uwtable
define void @write_json_preamble(ptr dead_on_unwind noalias writable sret(%struct.json_dumper) align 8 %0, ptr noundef %1) #0 {
  %3 = alloca ptr, align 8
  store ptr %1, ptr %3, align 8
  call void @llvm.memset.p0.i64(ptr align 8 %0, i8 0, i64 1136, i1 false)
  %4 = getelementptr inbounds nuw %struct.json_dumper, ptr %0, i32 0, i32 0
  %5 = load ptr, ptr %3, align 8
  store ptr %5, ptr %4, align 8
  %6 = getelementptr inbounds nuw %struct.json_dumper, ptr %0, i32 0, i32 2
  store i32 1, ptr %6, align 8
  call void @json_dumper_begin_array(ptr noundef %0)
  ret void
}